target datalayout = "e-m:e-p270:32:32-p271:32:32-p272:64:64-i64:64-i128:128-f80:128-n8:16:32:64-S128"
target triple = "x86_64-pc-linux-gnu"

; Function Attrs: nounwind uwtable
define void @Dau_DsdRemoveBraces_rec(ptr noundef %0, ptr noundef %1, ptr noundef %2) #0 {
  %4 = alloca ptr, align 8
  %5 = alloca ptr, align 8
  %6 = alloca ptr, align 8
  %7 = alloca ptr, align 8
  %8 = alloca ptr, align 8
  %9 = alloca i32, align 4
  %10 = alloca ptr, align 8
  store ptr %0, ptr %4, align 8
  store ptr %1, ptr %5, align 8
  store ptr %2, ptr %6, align 8
  %11 = load ptr, ptr %5, align 8
  %12 = load ptr, ptr %11, align 8
  %13 = load i8, ptr %12, align 1
  %14 = sext i8 %13 to i32
  %15 = icmp eq i32 %14, 33
  br i1 %15, label %16, label %20

16:                                               ; preds = %3
  %17 = load ptr, ptr %5, align 8
  %18 = load ptr, ptr %17, align 8
  %19 = getelementptr inbounds i8, ptr %18, i32 1
  store ptr %19, ptr %17, align 8
  br label %20

20:                                               ; preds = %16, %3
  br label %21

21:                                               ; preds = %49, %20
  %22 = load ptr, ptr %5, align 8
  %23 = load ptr, ptr %22, align 8
  %24 = load i8, ptr %23, align 1
  %25 = sext i8 %24 to i32
  %26 = icmp sge i32 %25, 65
  br i1 %26, label %27, label %33

27:                                               ; preds = %21
  %28 = load ptr, ptr %5, align 8
  %29 = load ptr, ptr %28, align 8
  %30 = load i8, ptr %29, align 1
  %31 = sext i8 %30 to i32
  %32 = icmp sle i32 %31, 70
  br i1 %32, label %47, label %33

33:                                               ; preds = %27, %21
  %34 = load ptr, ptr %5, align 8
  %35 = load ptr, ptr %34, align 8
  %36 = load i8, ptr %35, align 1
  %37 = sext i8 %36 to i32
  %38 = icmp sge i32 %37, 48
  br i1 %38, label %39, label %45

39:                                               ; preds = %33
  %40 = load ptr, ptr %5, align 8
  %41 = load ptr, ptr %40, align 8
  %42 = load i8, ptr %41, align 1
  %43 = sext i8 %42 to i32
  %44 = icmp sle i32 %43, 57
  br label %45

45:                                               ; preds = %39, %33
  %46 = phi i1 [ false, %33 ], [ %44, %39 ]
  br label %47

47:                                               ; preds = %45, %27
  %48 = phi i1 [ true, %27 ], [ %46, %45 ]
  br i1 %48, label %49, label %53

49:                                               ; preds = %47
  %50 = load ptr, ptr %5, align 8
  %51 = load ptr, ptr %50, align 8
  %52 = getelementptr inbounds i8, ptr %51, i32 1
  store ptr %52, ptr %50, align 8
  br label %21, !llvm.loop !15

53:                                               ; preds = %47
  %54 = load ptr, ptr %5, align 8
  %55 = load ptr, ptr %54, align 8
  %56 = load i8, ptr %55, align 1
  %57 = sext i8 %56 to i32
  %58 = icmp eq i32 %57, 60
  br i1 %58, label %59, label %82

59:                                               ; preds = %53
  %60 = load ptr, ptr %4, align 8
  %61 = load ptr, ptr %6, align 8
  %62 = load ptr, ptr %5, align 8
  %63 = load ptr, ptr %62, align 8
  %64 = load ptr, ptr %4, align 8
  %65 = ptrtoint ptr %63 to i64
  %66 = ptrtoint ptr %64 to i64
  %67 = sub i64 %65, %66
  %68 = getelementptr inbounds i32, ptr %61, i64 %67
  %69 = load i32, ptr %68, align 4
  %70 = sext i32 %69 to i64
  %71 = getelementptr inbounds i8, ptr %60, i64 %70
  store ptr %71, ptr %7, align 8
  %72 = load ptr, ptr %7, align 8
  %73 = getelementptr inbounds i8, ptr %72, i64 1
  %74 = load i8, ptr %73, align 1
  %75 = sext i8 %74 to i32
  %76 = icmp eq i32 %75, 123
  br i1 %76, label %77, label %81

77:                                               ; preds = %59
  %78 = load ptr, ptr %7, align 8
  %79 = getelementptr inbounds i8, ptr %78, i64 1
  %80 = load ptr, ptr %5, align 8
  store ptr %79, ptr %80, align 8
  br label %81

81:                                               ; preds = %77, %59
  br label %82

82:                                               ; preds = %81, %53
  %83 = load ptr, ptr %5, align 8
  %84 = load ptr, ptr %83, align 8
  %85 = load i8, ptr %84, align 1
  %86 = sext i8 %85 to i32
  %87 = icmp sge i32 %86, 97
  br i1 %87, label %88, label %95

88:                                               ; preds = %82
  %89 = load ptr, ptr %5, align 8
  %90 = load ptr, ptr %89, align 8
  %91 = load i8, ptr %90, align 1
  %92 = sext i8 %91 to i32
  %93 = icmp sle i32 %92, 122
  br i1 %93, label %94, label %95

94:                                               ; preds = %88
  br label %193

95:                                               ; preds = %88, %82
  %96 = load ptr, ptr %5, align 8
  %97 = load ptr, ptr %96, align 8
  %98 = load i8, ptr %97, align 1
  %99 = sext i8 %98 to i32
  %100 = icmp eq i32 %99, 40
  br i1 %100, label %119, label %101

101:                                              ; preds = %95
  %102 = load ptr, ptr %5, align 8
  %103 = load ptr, ptr %102, align 8
  %104 = load i8, ptr %103, align 1
  %105 = sext i8 %104 to i32
  %106 = icmp eq i32 %105, 91
  br i1 %106, label %119, label %107

107:                                              ; preds = %101
  %108 = load ptr, ptr %5, align 8
  %109 = load ptr, ptr %108, align 8
  %110 = load i8, ptr %109, align 1
  %111 = sext i8 %110 to i32
  %112 = icmp eq i32 %111, 60
  br i1 %112, label %119, label %113

113:                                              ; preds = %107
  %114 = load ptr, ptr %5, align 8
  %115 = load ptr, ptr %114, align 8
  %116 = load i8, ptr %115, align 1
  %117 = sext i8 %116 to i32
  %118 = icmp eq i32 %117, 123
  br i1 %118, label %119, label %193

119:                                              ; preds = %113, %107, %101, %95
  %120 = load ptr, ptr %4, align 8
  %121 = load ptr, ptr %6, align 8
  %122 = load ptr, ptr %5, align 8
  %123 = load ptr, ptr %122, align 8
  %124 = load ptr, ptr %4, align 8
  %125 = ptrtoint ptr %123 to i64
  %126 = ptrtoint ptr %124 to i64
  %127 = sub i64 %125, %126
  %128 = getelementptr inbounds i32, ptr %121, i64 %127
  %129 = load i32, ptr %128, align 4
  %130 = sext i32 %129 to i64
  %131 = getelementptr inbounds i8, ptr %120, i64 %130
  store ptr %131, ptr %8, align 8
  %132 = load ptr, ptr %5, align 8
  %133 = load ptr, ptr %132, align 8
  %134 = getelementptr inbounds i8, ptr %133, i32 1
  store ptr %134, ptr %132, align 8
  br label %135

135:                                              ; preds = %188, %119
  %136 = load ptr, ptr %5, align 8
  %137 = load ptr, ptr %136, align 8
  %138 = load ptr, ptr %8, align 8
  %139 = icmp ult ptr %137, %138
  br i1 %139, label %140, label %192

140:                                              ; preds = %135
  %141 = load ptr, ptr %5, align 8
  %142 = load ptr, ptr %141, align 8
  %143 = load i8, ptr %142, align 1
  %144 = sext i8 %143 to i32
  %145 = icmp eq i32 %144, 33
  %146 = zext i1 %145 to i32
  store i32 %146, ptr %9, align 4
  %147 = load i32, ptr %9, align 4
  %148 = icmp ne i32 %147, 0
  br i1 %148, label %149, label %153

149:                                              ; preds = %140
  %150 = load ptr, ptr %5, align 8
  %151 = load ptr, ptr %150, align 8
  %152 = getelementptr inbounds i8, ptr %151, i64 1
  br label %156

153:                                              ; preds = %140
  %154 = load ptr, ptr %5, align 8
  %155 = load ptr, ptr %154, align 8
  br label %156

156:                                              ; preds = %153, %149
  %157 = phi ptr [ %152, %149 ], [ %155, %153 ]
  store ptr %157, ptr %10, align 8
  %158 = load ptr, ptr %4, align 8
  %159 = load ptr, ptr %5, align 8
  %160 = load ptr, ptr %6, align 8
  call void @Dau_DsdRemoveBraces_rec(ptr noundef %158, ptr noundef %159, ptr noundef %160)
  %161 = load i32, ptr %9, align 4
  %162 = icmp ne i32 %161, 0
  br i1 %162, label %173, label %163

163:                                              ; preds = %156
  %164 = load ptr, ptr %10, align 8
  %165 = load i8, ptr %164, align 1
  %166 = sext i8 %165 to i32
  %167 = icmp eq i32 %166, 40
  br i1 %167, label %168, label %173

168:                                              ; preds = %163
  %169 = load ptr, ptr %8, align 8
  %170 = load i8, ptr %169, align 1
  %171 = sext i8 %170 to i32
  %172 = icmp eq i32 %171, 41
  br i1 %172, label %183, label %173

173:                                              ; preds = %168, %163, %156
  %174 = load ptr, ptr %10, align 8
  %175 = load i8, ptr %174, align 1
  %176 = sext i8 %175 to i32
  %177 = icmp eq i32 %176, 91
  br i1 %177, label %178, label %187

178:                                              ; preds = %173
  %179 = load ptr, ptr %8, align 8
  %180 = load i8, ptr %179, align 1
  %181 = sext i8 %180 to i32
  %182 = icmp eq i32 %181, 93
  br i1 %182, label %183, label %187

183:                                              ; preds = %178, %168
  %184 = load ptr, ptr %5, align 8
  %185 = load ptr, ptr %184, align 8
  store i8 32, ptr %185, align 1
  %186 = load ptr, ptr %10, align 8
  store i8 32, ptr %186, align 1
  br label %187

187:                                              ; preds = %183, %178, %173
  br label %188

188:                                              ; preds = %187
  %189 = load ptr, ptr %5, align 8
  %190 = load ptr, ptr %189, align 8
  %191 = getelementptr inbounds i8, ptr %190, i32 1
  store ptr %191, ptr %189, align 8
  br label %135, !llvm.loop !16

192:                                              ; preds = %135
  br label %193

193:                                              ; preds = %192, %113, %94
  ret void
}