; Function Attrs: nofree nosync nounwind memory(readwrite, inaccessiblemem: none) uwtable
define void @Dau_DsdRemoveBraces_rec(ptr noundef %0, ptr noundef captures(none) %1, ptr noundef readonly captures(none) %2) local_unnamed_addr #1 {
  %4 = load ptr, ptr %1, align 8
  %5 = load i8, ptr %4, align 1
  %6 = icmp eq i8 %5, 33
  br i1 %6, label %7, label %9

7:                                                ; preds = %3
  %8 = getelementptr inbounds nuw i8, ptr %4, i64 1
  store ptr %8, ptr %1, align 8
  %.pre = load i8, ptr %8, align 1
  br label %9

9:                                                ; preds = %7, %3
  %10 = phi i8 [ %.pre, %7 ], [ %5, %3 ]
  %.promoted = phi ptr [ %8, %7 ], [ %4, %3 ]
  %11 = add i8 %10, -65
  %or.cond53 = icmp ult i8 %11, 6
  %12 = add i8 %10, -48
  %or.cond4954 = icmp ult i8 %12, 10
  %or.cond5155 = or i1 %or.cond53, %or.cond4954
  br i1 %or.cond5155, label %.critedge, label %.critedge2

.critedge:                                        ; preds = %9, %.critedge
  %13 = phi ptr [ %14, %.critedge ], [ %.promoted, %9 ]
  %14 = getelementptr inbounds nuw i8, ptr %13, i64 1
  store ptr %14, ptr %1, align 8
  %15 = load i8, ptr %14, align 1
  %16 = add i8 %15, -65
  %or.cond = icmp ult i8 %16, 6
  %17 = add i8 %15, -48
  %or.cond49 = icmp ult i8 %17, 10
  %or.cond51 = or i1 %or.cond, %or.cond49
  br i1 %or.cond51, label %.critedge, label %.critedge2, !llvm.loop !14

.critedge2:                                       ; preds = %.critedge, %9
  %.lcssa52 = phi ptr [ %.promoted, %9 ], [ %14, %.critedge ]
  %.lcssa = phi i8 [ %10, %9 ], [ %15, %.critedge ]
  %18 = icmp eq i8 %.lcssa, 60
  br i1 %18, label %19, label %31

19:                                               ; preds = %.critedge2
  %20 = ptrtoint ptr %.lcssa52 to i64
  %21 = ptrtoint ptr %0 to i64
  %22 = sub i64 %20, %21
  %23 = getelementptr inbounds i32, ptr %2, i64 %22
  %24 = load i32, ptr %23, align 4
  %25 = sext i32 %24 to i64
  %26 = getelementptr inbounds i8, ptr %0, i64 %25
  %27 = getelementptr inbounds nuw i8, ptr %26, i64 1
  %28 = load i8, ptr %27, align 1
  %29 = icmp eq i8 %28, 123
  br i1 %29, label %30, label %.thread66

30:                                               ; preds = %19
  store ptr %27, ptr %1, align 8
  %.pre63 = load i8, ptr %27, align 1
  br label %31

31:                                               ; preds = %30, %.critedge2
  %32 = phi i8 [ %.pre63, %30 ], [ %.lcssa, %.critedge2 ]
  %33 = phi ptr [ %27, %30 ], [ %.lcssa52, %.critedge2 ]
  %34 = add i8 %32, -97
  %or.cond50 = icmp ult i8 %34, 26
  br i1 %or.cond50, label %.loopexit, label %35

35:                                               ; preds = %31
  switch i8 %32, label %.loopexit [
    i8 40, label %.thread66
    i8 91, label %.thread66
    i8 60, label %.thread66
    i8 123, label %.thread66
  ]

.thread66:                                        ; preds = %19, %35, %35, %35, %35
  %36 = phi ptr [ %33, %35 ], [ %33, %35 ], [ %33, %35 ], [ %33, %35 ], [ %.lcssa52, %19 ]
  %37 = ptrtoint ptr %36 to i64
  %38 = ptrtoint ptr %0 to i64
  %39 = sub i64 %37, %38
  %40 = getelementptr inbounds i32, ptr %2, i64 %39
  %41 = load i32, ptr %40, align 4
  %42 = sext i32 %41 to i64
  %43 = getelementptr inbounds i8, ptr %0, i64 %42
  %storemerge57 = getelementptr inbounds nuw i8, ptr %36, i64 1
  store ptr %storemerge57, ptr %1, align 8
  %44 = icmp ult ptr %storemerge57, %43
  br i1 %44, label %.lr.ph, label %.loopexit

.lr.ph:                                           ; preds = %.thread66, %.thread
  %storemerge59 = phi ptr [ %storemerge, %.thread ], [ %storemerge57, %.thread66 ]
  %.pn58 = phi ptr [ %63, %.thread ], [ %36, %.thread66 ]
  %45 = load i8, ptr %storemerge59, align 1
  %46 = icmp eq i8 %45, 33
  %47 = getelementptr inbounds nuw i8, ptr %.pn58, i64 2
  %48 = select i1 %46, ptr %47, ptr %storemerge59
  tail call void @Dau_DsdRemoveBraces_rec(ptr noundef %0, ptr noundef nonnull %1, ptr noundef %2)
  br i1 %46, label %thread-pre-split, label %49

49:                                               ; preds = %.lr.ph
  %50 = load i8, ptr %storemerge59, align 1
  %51 = icmp eq i8 %50, 40
  br i1 %51, label %52, label %55

52:                                               ; preds = %49
  %53 = load i8, ptr %43, align 1
  %54 = icmp eq i8 %53, 41
  br i1 %54, label %61, label %.thread

thread-pre-split:                                 ; preds = %.lr.ph
  %.pr = load i8, ptr %47, align 1
  br label %55

55:                                               ; preds = %thread-pre-split, %49
  %56 = phi i8 [ %.pr, %thread-pre-split ], [ %50, %49 ]
  %57 = icmp eq i8 %56, 91
  br i1 %57, label %58, label %.thread

58:                                               ; preds = %55
  %59 = load i8, ptr %43, align 1
  %60 = icmp eq i8 %59, 93
  br i1 %60, label %61, label %.thread

61:                                               ; preds = %58, %52
  %62 = load ptr, ptr %1, align 8
  store i8 32, ptr %62, align 1
  store i8 32, ptr %48, align 1
  br label %.thread

.thread:                                          ; preds = %52, %55, %58, %61
  %63 = load ptr, ptr %1, align 8
  %storemerge = getelementptr inbounds nuw i8, ptr %63, i64 1
  store ptr %storemerge, ptr %1, align 8
  %64 = icmp ult ptr %storemerge, %43
  br i1 %64, label %.lr.ph, label %.loopexit, !llvm.loop !15

.loopexit:                                        ; preds = %.thread, %.thread66, %35, %31
  ret void
}